; Function Attrs: mustprogress nounwind uwtable
define hidden void @_ZN13ReplacedNodes6recordEP4NodeS1_(ptr nocapture noundef nonnull align 8 dereferenceable(8) %0, ptr noundef %1, ptr noundef %2) local_unnamed_addr #0 align 2 {
  %4 = load ptr, ptr %0, align 8
  %5 = icmp eq ptr %4, null
  br i1 %5, label %6, label %_ZN13ReplacedNodes21allocate_if_necessaryEv.exit

6:                                                ; preds = %3
  %7 = tail call noundef ptr @_Z23resource_allocate_bytesmN17AllocFailStrategy13AllocFailEnumE(i64 noundef 24, i32 noundef 0) #8
  %8 = tail call noundef ptr @_ZN30GrowableArrayResourceAllocator8allocateEii(i32 noundef 2, i32 noundef 16) #8
  store i32 0, ptr %7, align 4
  %9 = getelementptr inbounds i8, ptr %7, i64 4
  store i32 2, ptr %9, align 4
  %10 = getelementptr inbounds i8, ptr %7, i64 8
  store ptr %8, ptr %10, align 8
  tail call void @llvm.memset.p0.i64(ptr noundef nonnull align 8 dereferenceable(32) %8, i8 0, i64 32, i1 false)
  %11 = getelementptr inbounds i8, ptr %7, i64 16
  store i64 0, ptr %11, align 8
  store ptr %7, ptr %0, align 8
  br label %_ZN13ReplacedNodes21allocate_if_necessaryEv.exit

_ZN13ReplacedNodes21allocate_if_necessaryEv.exit: ; preds = %3, %6
  %12 = phi ptr [ %4, %3 ], [ %7, %6 ]
  %13 = load i32, ptr %12, align 8
  %14 = icmp sgt i32 %13, 0
  br i1 %14, label %.lr.ph.i.i, label %.loopexit

.lr.ph.i.i:                                       ; preds = %_ZN13ReplacedNodes21allocate_if_necessaryEv.exit
  %15 = getelementptr inbounds i8, ptr %12, i64 8
  %16 = load ptr, ptr %15, align 8
  %wide.trip.count.i.i = zext nneg i32 %13 to i64
  br label %17

17:                                               ; preds = %25, %.lr.ph.i.i
  %indvars.iv.i.i = phi i64 [ 0, %.lr.ph.i.i ], [ %indvars.iv.next.i.i, %25 ]
  %18 = getelementptr inbounds %"class.ReplacedNodes::ReplacedNode", ptr %16, i64 %indvars.iv.i.i
  %19 = load ptr, ptr %18, align 8
  %20 = icmp eq ptr %19, %1
  %21 = getelementptr inbounds i8, ptr %18, i64 8
  %22 = load ptr, ptr %21, align 8
  %23 = icmp eq ptr %22, %2
  %24 = select i1 %20, i1 %23, i1 false
  br i1 %24, label %_ZNK13ReplacedNodes8has_nodeERKNS_12ReplacedNodeE.exit, label %25

25:                                               ; preds = %17
  %indvars.iv.next.i.i = add nuw nsw i64 %indvars.iv.i.i, 1
  %exitcond.not.i.i = icmp eq i64 %indvars.iv.next.i.i, %wide.trip.count.i.i
  br i1 %exitcond.not.i.i, label %.loopexit, label %17, !llvm.loop !6

.loopexit:                                        ; preds = %25, %_ZN13ReplacedNodes21allocate_if_necessaryEv.exit
  %26 = getelementptr inbounds i8, ptr %12, i64 4
  %27 = load i32, ptr %26, align 4
  %28 = icmp eq i32 %13, %27
  br i1 %28, label %29, label %_ZN26GrowableArrayWithAllocatorIN13ReplacedNodes12ReplacedNodeE13GrowableArrayIS1_EE4pushERKS1_.exit

29:                                               ; preds = %.loopexit
  %30 = add nsw i32 %13, 1
  %31 = icmp sgt i32 %13, -1
  %32 = xor i32 %13, -2147483648
  %33 = and i32 %32, %30
  %34 = icmp eq i32 %33, 0
  %35 = and i1 %31, %34
  %36 = tail call range(i32 0, 33) i32 @llvm.ctlz.i32(i32 %30, i1 true)
  %37 = sub nuw nsw i32 32, %36
  %38 = shl nuw i32 1, %37
  %.0.i.i.i.i.i = select i1 %35, i32 %30, i32 %38
  tail call void @_ZN26GrowableArrayWithAllocatorIN13ReplacedNodes12ReplacedNodeE13GrowableArrayIS1_EE9expand_toEi(ptr noundef nonnull align 8 dereferenceable(16) %12, i32 noundef %.0.i.i.i.i.i)
  %.pre.i.i = load i32, ptr %12, align 8
  br label %_ZN26GrowableArrayWithAllocatorIN13ReplacedNodes12ReplacedNodeE13GrowableArrayIS1_EE4pushERKS1_.exit

_ZN26GrowableArrayWithAllocatorIN13ReplacedNodes12ReplacedNodeE13GrowableArrayIS1_EE4pushERKS1_.exit: ; preds = %.loopexit, %29
  %39 = phi i32 [ %.pre.i.i, %29 ], [ %13, %.loopexit ]
  %40 = add nsw i32 %39, 1
  store i32 %40, ptr %12, align 8
  %41 = getelementptr inbounds i8, ptr %12, i64 8
  %42 = load ptr, ptr %41, align 8
  %43 = sext i32 %39 to i64
  %44 = getelementptr inbounds %"class.ReplacedNodes::ReplacedNode", ptr %42, i64 %43
  store ptr %1, ptr %44, align 8
  %.sroa.3.0..sroa_idx = getelementptr inbounds i8, ptr %44, i64 8
  store ptr %2, ptr %.sroa.3.0..sroa_idx, align 8
  br label %_ZNK13ReplacedNodes8has_nodeERKNS_12ReplacedNodeE.exit

_ZNK13ReplacedNodes8has_nodeERKNS_12ReplacedNodeE.exit: ; preds = %17, %_ZN26GrowableArrayWithAllocatorIN13ReplacedNodes12ReplacedNodeE13GrowableArrayIS1_EE4pushERKS1_.exit
  ret void
}